; Function Attrs: mustprogress uwtable
define hidden void @_Z10flatten_orP4exprR10ref_vectorIS_11ast_managerE(ptr noundef %0, ptr noundef nonnull align 8 dereferenceable(16) %1) local_unnamed_addr #3 {
  %.not.i.i.i.i = icmp eq ptr %0, null
  br i1 %.not.i.i.i.i, label %_ZN15ref_vector_coreI4expr19ref_manager_wrapperIS0_11ast_managerEE7inc_refEPS0_.exit.i, label %3

3:                                                ; preds = %2
  %4 = getelementptr inbounds nuw i8, ptr %0, i64 8
  %5 = load i32, ptr %4, align 4, !tbaa !127
  %6 = add i32 %5, 1
  store i32 %6, ptr %4, align 4, !tbaa !127
  br label %_ZN15ref_vector_coreI4expr19ref_manager_wrapperIS0_11ast_managerEE7inc_refEPS0_.exit.i

_ZN15ref_vector_coreI4expr19ref_manager_wrapperIS0_11ast_managerEE7inc_refEPS0_.exit.i: ; preds = %3, %2
  %7 = getelementptr inbounds nuw i8, ptr %1, i64 8
  %8 = load ptr, ptr %7, align 8, !tbaa !10
  %9 = icmp eq ptr %8, null
  br i1 %9, label %16, label %10

10:                                               ; preds = %_ZN15ref_vector_coreI4expr19ref_manager_wrapperIS0_11ast_managerEE7inc_refEPS0_.exit.i
  %11 = getelementptr inbounds i8, ptr %8, i64 -4
  %12 = load i32, ptr %11, align 4, !tbaa !16
  %13 = getelementptr inbounds i8, ptr %8, i64 -8
  %14 = load i32, ptr %13, align 4, !tbaa !16
  %15 = icmp eq i32 %12, %14
  br i1 %15, label %16, label %_ZN15ref_vector_coreI4expr19ref_manager_wrapperIS0_11ast_managerEE9push_backEPS0_.exit

16:                                               ; preds = %10, %_ZN15ref_vector_coreI4expr19ref_manager_wrapperIS0_11ast_managerEE7inc_refEPS0_.exit.i
  tail call void @_ZN6vectorIP4exprLb0EjE13expand_vectorEv(ptr noundef nonnull align 8 dereferenceable(8) %7)
  %.pre.i.i = load ptr, ptr %7, align 8, !tbaa !10
  %.phi.trans.insert.i.i = getelementptr inbounds i8, ptr %.pre.i.i, i64 -4
  %.pre2.i.i = load i32, ptr %.phi.trans.insert.i.i, align 4, !tbaa !16
  br label %_ZN15ref_vector_coreI4expr19ref_manager_wrapperIS0_11ast_managerEE9push_backEPS0_.exit

_ZN15ref_vector_coreI4expr19ref_manager_wrapperIS0_11ast_managerEE9push_backEPS0_.exit: ; preds = %10, %16
  %17 = phi i32 [ %.pre2.i.i, %16 ], [ %12, %10 ]
  %18 = phi ptr [ %.pre.i.i, %16 ], [ %8, %10 ]
  %19 = getelementptr inbounds i8, ptr %18, i64 -4
  %20 = zext i32 %17 to i64
  %21 = getelementptr inbounds nuw ptr, ptr %18, i64 %20
  store ptr %0, ptr %21, align 8, !tbaa !3
  %22 = add i32 %17, 1
  store i32 %22, ptr %19, align 4, !tbaa !16
  tail call void @_Z10flatten_orR10ref_vectorI4expr11ast_managerE(ptr noundef nonnull align 8 dereferenceable(16) %1)
  ret void
}